target datalayout = "e-m:e-p270:32:32-p271:32:32-p272:64:64-i64:64-i128:128-f80:128-n8:16:32:64-S128"
target triple = "x86_64-pc-linux-gnu"

%struct.QArrayData = type { %"class.QtPrivate::RefCount", i32, i32, i64 }
%"class.QtPrivate::RefCount" = type { %class.QBasicAtomicInteger }
%class.QBasicAtomicInteger = type { %"struct.std::atomic" }
%"struct.std::atomic" = type { %"struct.std::__atomic_base" }
%"struct.std::__atomic_base" = type { i32 }
%class.QFlags = type { i32 }
%class.QPixmap = type { %class.QPaintDevice, %class.QExplicitlySharedDataPointer }
%class.QPaintDevice = type { ptr, i16, ptr }
%class.QExplicitlySharedDataPointer = type { ptr }
%class.PluginInfoDialog = type { %class.QDialog, ptr, %class.QIcon, %class.QIcon, %class.QIcon, %class.QString }
%class.QDialog = type { %class.QWidget }
%class.QWidget = type { %class.QObject, %class.QPaintDevice, ptr }
%class.QObject = type { ptr, %class.QScopedPointer }
%class.QScopedPointer = type { ptr }
%class.QIcon = type { ptr }
%class.QString = type { ptr }

@_ZTV16PluginInfoDialog = external unnamed_addr constant { [59 x ptr], [10 x ptr] }, align 8
@_ZN10QArrayData11shared_nullE = external global [2 x %struct.QArrayData], align 16

; Function Attrs: mustprogress nounwind uwtable
define linkonce_odr noundef ptr @_ZN10QArrayData10sharedNullEv() #4 comdat align 2 {
  ret ptr @_ZN10QArrayData11shared_nullE
}

; Function Attrs: mustprogress nounwind uwtable
define linkonce_odr noundef ptr @_ZN15QTypedArrayDataItE10sharedNullEv() #4 comdat align 2 {
  %1 = call noundef ptr @_ZN10QArrayData10sharedNullEv() #3
  ret ptr %1
}

; Function Attrs: mustprogress nounwind uwtable
define linkonce_odr void @_ZN7QStringC2Ev(ptr noundef nonnull align 8 dereferenceable(8) %0) unnamed_addr #4 comdat align 2 {
  %2 = alloca ptr, align 8
  store ptr %0, ptr %2, align 8
  %3 = load ptr, ptr %2, align 8
  %4 = getelementptr inbounds %class.QString, ptr %3, i32 0, i32 0
  %5 = call noundef ptr @_ZN15QTypedArrayDataItE10sharedNullEv() #3
  store ptr %5, ptr %4, align 8
  ret void
}

; Function Attrs: mustprogress nounwind uwtable
define linkonce_odr void @_ZN6QFlagsIN2Qt10WindowTypeEEC2Ev(ptr noundef nonnull align 4 dereferenceable(4) %0) unnamed_addr #4 comdat align 2 {
  %2 = alloca ptr, align 8
  store ptr %0, ptr %2, align 8
  %3 = load ptr, ptr %2, align 8
  %4 = getelementptr inbounds %class.QFlags, ptr %3, i32 0, i32 0
  store i32 0, ptr %4, align 4
  ret void
}

; Function Attrs: mustprogress uwtable
define void @_ZN16PluginInfoDialogC2EP7QWidget(ptr noundef nonnull align 8 dereferenceable(88) %0, ptr noundef %1) unnamed_addr #5 align 2 personality ptr @__gxx_personality_v0 {
  %3 = alloca ptr, align 8
  %4 = alloca ptr, align 8
  %5 = alloca %class.QFlags, align 4
  %6 = alloca ptr, align 8
  %7 = alloca i32, align 4
  %8 = alloca %class.QPixmap, align 8
  %9 = alloca %class.QPixmap, align 8
  %10 = alloca %class.QPixmap, align 8
  %11 = alloca %class.QPixmap, align 8
  store ptr %0, ptr %3, align 8
  store ptr %1, ptr %4, align 8
  %12 = load ptr, ptr %3, align 8
  %13 = load ptr, ptr %4, align 8
  call void @_ZN6QFlagsIN2Qt10WindowTypeEEC2Ev(ptr noundef nonnull align 4 dereferenceable(4) %5) #3
  %14 = getelementptr inbounds %class.QFlags, ptr %5, i32 0, i32 0
  %15 = load i32, ptr %14, align 4
  call void @_ZN7QDialogC2EP7QWidget6QFlagsIN2Qt10WindowTypeEE(ptr noundef nonnull align 8 dereferenceable(48) %12, ptr noundef %13, i32 %15)
  store ptr getelementptr inbounds ({ [59 x ptr], [10 x ptr] }, ptr @_ZTV16PluginInfoDialog, i32 0, i32 0, i32 2), ptr %12, align 8
  %16 = getelementptr inbounds i8, ptr %12, i64 16
  store ptr getelementptr inbounds ({ [59 x ptr], [10 x ptr] }, ptr @_ZTV16PluginInfoDialog, i32 0, i32 1, i32 2), ptr %16, align 8
  %17 = getelementptr inbounds %class.PluginInfoDialog, ptr %12, i32 0, i32 1
  %18 = invoke noalias noundef nonnull ptr @_Znwm(i64 noundef 40) #18
          to label %19 unwind label %60

19:                                               ; preds = %2
  store ptr %18, ptr %17, align 8
  %20 = getelementptr inbounds %class.PluginInfoDialog, ptr %12, i32 0, i32 2
  call void @_ZN5QIconC1Ev(ptr noundef nonnull align 8 dereferenceable(8) %20) #3
  %21 = getelementptr inbounds %class.PluginInfoDialog, ptr %12, i32 0, i32 3
  call void @_ZN5QIconC1Ev(ptr noundef nonnull align 8 dereferenceable(8) %21) #3
  %22 = getelementptr inbounds %class.PluginInfoDialog, ptr %12, i32 0, i32 4
  call void @_ZN5QIconC1Ev(ptr noundef nonnull align 8 dereferenceable(8) %22) #3
  %23 = getelementptr inbounds %class.PluginInfoDialog, ptr %12, i32 0, i32 5
  call void @_ZN7QStringC2Ev(ptr noundef nonnull align 8 dereferenceable(8) %23) #3
  %24 = getelementptr inbounds %class.PluginInfoDialog, ptr %12, i32 0, i32 1
  %25 = load ptr, ptr %24, align 8
  invoke void @_ZN19Ui_PluginInfoDialog7setupUiEP7QDialog(ptr noundef nonnull align 8 dereferenceable(40) %25, ptr noundef %12)
          to label %26 unwind label %64

26:                                               ; preds = %19
  %27 = getelementptr inbounds %class.PluginInfoDialog, ptr %12, i32 0, i32 2
  %28 = invoke noundef ptr @_ZNK7QWidget5styleEv(ptr noundef nonnull align 8 dereferenceable(48) %12)
          to label %29 unwind label %64

29:                                               ; preds = %26
  %30 = load ptr, ptr %28, align 8
  %31 = getelementptr inbounds ptr, ptr %30, i64 31
  %32 = load ptr, ptr %31, align 8
  invoke void %32(ptr dead_on_unwind writable sret(%class.QPixmap) align 8 %8, ptr noundef nonnull align 8 dereferenceable(16) %28, i32 noundef 21, ptr noundef null, ptr noundef null)
          to label %33 unwind label %64

33:                                               ; preds = %29
  invoke void @_ZN5QIcon9addPixmapERK7QPixmapNS_4ModeENS_5StateE(ptr noundef nonnull align 8 dereferenceable(8) %27, ptr noundef nonnull align 8 dereferenceable(32) %8, i32 noundef 0, i32 noundef 0)
          to label %34 unwind label %68

34:                                               ; preds = %33
  call void @_ZN7QPixmapD1Ev(ptr noundef nonnull align 8 dereferenceable(32) %8) #3
  %35 = getelementptr inbounds %class.PluginInfoDialog, ptr %12, i32 0, i32 2
  %36 = invoke noundef ptr @_ZNK7QWidget5styleEv(ptr noundef nonnull align 8 dereferenceable(48) %12)
          to label %37 unwind label %64

37:                                               ; preds = %34
  %38 = load ptr, ptr %36, align 8
  %39 = getelementptr inbounds ptr, ptr %38, i64 31
  %40 = load ptr, ptr %39, align 8
  invoke void %40(ptr dead_on_unwind writable sret(%class.QPixmap) align 8 %9, ptr noundef nonnull align 8 dereferenceable(16) %36, i32 noundef 22, ptr noundef null, ptr noundef null)
          to label %41 unwind label %64

41:                                               ; preds = %37
  invoke void @_ZN5QIcon9addPixmapERK7QPixmapNS_4ModeENS_5StateE(ptr noundef nonnull align 8 dereferenceable(8) %35, ptr noundef nonnull align 8 dereferenceable(32) %9, i32 noundef 0, i32 noundef 1)
          to label %42 unwind label %72

42:                                               ; preds = %41
  call void @_ZN7QPixmapD1Ev(ptr noundef nonnull align 8 dereferenceable(32) %9) #3
  %43 = getelementptr inbounds %class.PluginInfoDialog, ptr %12, i32 0, i32 3
  %44 = invoke noundef ptr @_ZNK7QWidget5styleEv(ptr noundef nonnull align 8 dereferenceable(48) %12)
          to label %45 unwind label %64

45:                                               ; preds = %42
  %46 = load ptr, ptr %44, align 8
  %47 = getelementptr inbounds ptr, ptr %46, i64 31
  %48 = load ptr, ptr %47, align 8
  invoke void %48(ptr dead_on_unwind writable sret(%class.QPixmap) align 8 %10, ptr noundef nonnull align 8 dereferenceable(16) %44, i32 noundef 25, ptr noundef null, ptr noundef null)
          to label %49 unwind label %64

49:                                               ; preds = %45
  invoke void @_ZN5QIcon9addPixmapERK7QPixmapNS_4ModeENS_5StateE(ptr noundef nonnull align 8 dereferenceable(8) %43, ptr noundef nonnull align 8 dereferenceable(32) %10, i32 noundef 0, i32 noundef 1)
          to label %50 unwind label %76

50:                                               ; preds = %49
  call void @_ZN7QPixmapD1Ev(ptr noundef nonnull align 8 dereferenceable(32) %10) #3
  %51 = getelementptr inbounds %class.PluginInfoDialog, ptr %12, i32 0, i32 4
  %52 = invoke noundef ptr @_ZNK7QWidget5styleEv(ptr noundef nonnull align 8 dereferenceable(48) %12)
          to label %53 unwind label %64

53:                                               ; preds = %50
  %54 = load ptr, ptr %52, align 8
  %55 = getelementptr inbounds ptr, ptr %54, i64 31
  %56 = load ptr, ptr %55, align 8
  invoke void %56(ptr dead_on_unwind writable sret(%class.QPixmap) align 8 %11, ptr noundef nonnull align 8 dereferenceable(16) %52, i32 noundef 40, ptr noundef null, ptr noundef null)
          to label %57 unwind label %64

57:                                               ; preds = %53
  invoke void @_ZN5QIcon9addPixmapERK7QPixmapNS_4ModeENS_5StateE(ptr noundef nonnull align 8 dereferenceable(8) %51, ptr noundef nonnull align 8 dereferenceable(32) %11, i32 noundef 0, i32 noundef 1)
          to label %58 unwind label %80

58:                                               ; preds = %57
  call void @_ZN7QPixmapD1Ev(ptr noundef nonnull align 8 dereferenceable(32) %11) #3
  invoke void @_ZN16PluginInfoDialog18populateTreeWidgetEv(ptr noundef nonnull align 8 dereferenceable(88) %12)
          to label %59 unwind label %64

59:                                               ; preds = %58
  ret void

60:                                               ; preds = %2
  %61 = landingpad { ptr, i32 }
          cleanup
  %62 = extractvalue { ptr, i32 } %61, 0
  store ptr %62, ptr %6, align 8
  %63 = extractvalue { ptr, i32 } %61, 1
  store i32 %63, ptr %7, align 4
  br label %85

64:                                               ; preds = %58, %53, %50, %45, %42, %37, %34, %29, %26, %19
  %65 = landingpad { ptr, i32 }
          cleanup
  %66 = extractvalue { ptr, i32 } %65, 0
  store ptr %66, ptr %6, align 8
  %67 = extractvalue { ptr, i32 } %65, 1
  store i32 %67, ptr %7, align 4
  br label %84

68:                                               ; preds = %33
  %69 = landingpad { ptr, i32 }
          cleanup
  %70 = extractvalue { ptr, i32 } %69, 0
  store ptr %70, ptr %6, align 8
  %71 = extractvalue { ptr, i32 } %69, 1
  store i32 %71, ptr %7, align 4
  call void @_ZN7QPixmapD1Ev(ptr noundef nonnull align 8 dereferenceable(32) %8) #3
  br label %84

72:                                               ; preds = %41
  %73 = landingpad { ptr, i32 }
          cleanup
  %74 = extractvalue { ptr, i32 } %73, 0
  store ptr %74, ptr %6, align 8
  %75 = extractvalue { ptr, i32 } %73, 1
  store i32 %75, ptr %7, align 4
  call void @_ZN7QPixmapD1Ev(ptr noundef nonnull align 8 dereferenceable(32) %9) #3
  br label %84

76:                                               ; preds = %49
  %77 = landingpad { ptr, i32 }
          cleanup
  %78 = extractvalue { ptr, i32 } %77, 0
  store ptr %78, ptr %6, align 8
  %79 = extractvalue { ptr, i32 } %77, 1
  store i32 %79, ptr %7, align 4
  call void @_ZN7QPixmapD1Ev(ptr noundef nonnull align 8 dereferenceable(32) %10) #3
  br label %84

80:                                               ; preds = %57
  %81 = landingpad { ptr, i32 }
          cleanup
  %82 = extractvalue { ptr, i32 } %81, 0
  store ptr %82, ptr %6, align 8
  %83 = extractvalue { ptr, i32 } %81, 1
  store i32 %83, ptr %7, align 4
  call void @_ZN7QPixmapD1Ev(ptr noundef nonnull align 8 dereferenceable(32) %11) #3
  br label %84

84:                                               ; preds = %80, %76, %72, %68, %64
  call void @_ZN7QStringD2Ev(ptr noundef nonnull align 8 dereferenceable(8) %23) #3
  call void @_ZN5QIconD1Ev(ptr noundef nonnull align 8 dereferenceable(8) %22) #3
  call void @_ZN5QIconD1Ev(ptr noundef nonnull align 8 dereferenceable(8) %21) #3
  call void @_ZN5QIconD1Ev(ptr noundef nonnull align 8 dereferenceable(8) %20) #3
  br label %85

85:                                               ; preds = %84, %60
  call void @_ZN7QDialogD2Ev(ptr noundef nonnull align 8 dereferenceable(48) %12) #3
  br label %86

86:                                               ; preds = %85
  %87 = load ptr, ptr %6, align 8
  %88 = load i32, ptr %7, align 4
  %89 = insertvalue { ptr, i32 } poison, ptr %87, 0
  %90 = insertvalue { ptr, i32 } %89, i32 %88, 1
  resume { ptr, i32 } %90
}