; Function Attrs: mustprogress uwtable
define void @_ZN16PluginInfoDialogC2EP7QWidget(ptr noundef nonnull align 8 dereferenceable(88) %0, ptr noundef %1) unnamed_addr #9 align 2 personality ptr @__gxx_personality_v0 {
  %3 = alloca %class.QPixmap, align 8
  %4 = alloca %class.QPixmap, align 8
  %5 = alloca %class.QPixmap, align 8
  %6 = alloca %class.QPixmap, align 8
  tail call void @_ZN7QDialogC2EP7QWidget6QFlagsIN2Qt10WindowTypeEE(ptr noundef nonnull align 8 dereferenceable(48) %0, ptr noundef %1, i32 0)
  store ptr getelementptr inbounds ({ [59 x ptr], [10 x ptr] }, ptr @_ZTV16PluginInfoDialog, i64 0, i32 0, i64 2), ptr %0, align 8
  %7 = getelementptr inbounds i8, ptr %0, i64 16
  store ptr getelementptr inbounds ({ [59 x ptr], [10 x ptr] }, ptr @_ZTV16PluginInfoDialog, i64 0, i32 1, i64 2), ptr %7, align 8
  %8 = invoke noalias noundef nonnull dereferenceable(40) ptr @_Znwm(i64 noundef 40) #24
          to label %9 unwind label %46

9:                                                ; preds = %2
  %10 = getelementptr inbounds i8, ptr %0, i64 48
  store ptr %8, ptr %10, align 8
  %11 = getelementptr inbounds i8, ptr %0, i64 56
  tail call void @_ZN5QIconC1Ev(ptr noundef nonnull align 8 dereferenceable(8) %11) #21
  %12 = getelementptr inbounds i8, ptr %0, i64 64
  tail call void @_ZN5QIconC1Ev(ptr noundef nonnull align 8 dereferenceable(8) %12) #21
  %13 = getelementptr inbounds i8, ptr %0, i64 72
  tail call void @_ZN5QIconC1Ev(ptr noundef nonnull align 8 dereferenceable(8) %13) #21
  %14 = getelementptr inbounds i8, ptr %0, i64 80
  store ptr @_ZN10QArrayData11shared_nullE, ptr %14, align 8
  %15 = load ptr, ptr %10, align 8
  invoke void @_ZN19Ui_PluginInfoDialog7setupUiEP7QDialog(ptr noundef nonnull align 8 dereferenceable(40) %15, ptr noundef nonnull %0)
          to label %16 unwind label %48

16:                                               ; preds = %9
  %17 = invoke noundef ptr @_ZNK7QWidget5styleEv(ptr noundef nonnull align 8 dereferenceable(48) %0)
          to label %18 unwind label %48

18:                                               ; preds = %16
  %19 = load ptr, ptr %17, align 8
  %20 = getelementptr inbounds i8, ptr %19, i64 248
  %21 = load ptr, ptr %20, align 8
  invoke void %21(ptr dead_on_unwind nonnull writable sret(%class.QPixmap) align 8 %3, ptr noundef nonnull align 8 dereferenceable(16) %17, i32 noundef 21, ptr noundef null, ptr noundef null)
          to label %22 unwind label %48

22:                                               ; preds = %18
  invoke void @_ZN5QIcon9addPixmapERK7QPixmapNS_4ModeENS_5StateE(ptr noundef nonnull align 8 dereferenceable(8) %11, ptr noundef nonnull align 8 dereferenceable(32) %3, i32 noundef 0, i32 noundef 0)
          to label %23 unwind label %50

23:                                               ; preds = %22
  call void @_ZN7QPixmapD1Ev(ptr noundef nonnull align 8 dereferenceable(32) %3) #21
  %24 = invoke noundef ptr @_ZNK7QWidget5styleEv(ptr noundef nonnull align 8 dereferenceable(48) %0)
          to label %25 unwind label %48

25:                                               ; preds = %23
  %26 = load ptr, ptr %24, align 8
  %27 = getelementptr inbounds i8, ptr %26, i64 248
  %28 = load ptr, ptr %27, align 8
  invoke void %28(ptr dead_on_unwind nonnull writable sret(%class.QPixmap) align 8 %4, ptr noundef nonnull align 8 dereferenceable(16) %24, i32 noundef 22, ptr noundef null, ptr noundef null)
          to label %29 unwind label %48

29:                                               ; preds = %25
  invoke void @_ZN5QIcon9addPixmapERK7QPixmapNS_4ModeENS_5StateE(ptr noundef nonnull align 8 dereferenceable(8) %11, ptr noundef nonnull align 8 dereferenceable(32) %4, i32 noundef 0, i32 noundef 1)
          to label %30 unwind label %52

30:                                               ; preds = %29
  call void @_ZN7QPixmapD1Ev(ptr noundef nonnull align 8 dereferenceable(32) %4) #21
  %31 = invoke noundef ptr @_ZNK7QWidget5styleEv(ptr noundef nonnull align 8 dereferenceable(48) %0)
          to label %32 unwind label %48

32:                                               ; preds = %30
  %33 = load ptr, ptr %31, align 8
  %34 = getelementptr inbounds i8, ptr %33, i64 248
  %35 = load ptr, ptr %34, align 8
  invoke void %35(ptr dead_on_unwind nonnull writable sret(%class.QPixmap) align 8 %5, ptr noundef nonnull align 8 dereferenceable(16) %31, i32 noundef 25, ptr noundef null, ptr noundef null)
          to label %36 unwind label %48

36:                                               ; preds = %32
  invoke void @_ZN5QIcon9addPixmapERK7QPixmapNS_4ModeENS_5StateE(ptr noundef nonnull align 8 dereferenceable(8) %12, ptr noundef nonnull align 8 dereferenceable(32) %5, i32 noundef 0, i32 noundef 1)
          to label %37 unwind label %54

37:                                               ; preds = %36
  call void @_ZN7QPixmapD1Ev(ptr noundef nonnull align 8 dereferenceable(32) %5) #21
  %38 = invoke noundef ptr @_ZNK7QWidget5styleEv(ptr noundef nonnull align 8 dereferenceable(48) %0)
          to label %39 unwind label %48

39:                                               ; preds = %37
  %40 = load ptr, ptr %38, align 8
  %41 = getelementptr inbounds i8, ptr %40, i64 248
  %42 = load ptr, ptr %41, align 8
  invoke void %42(ptr dead_on_unwind nonnull writable sret(%class.QPixmap) align 8 %6, ptr noundef nonnull align 8 dereferenceable(16) %38, i32 noundef 40, ptr noundef null, ptr noundef null)
          to label %43 unwind label %48

43:                                               ; preds = %39
  invoke void @_ZN5QIcon9addPixmapERK7QPixmapNS_4ModeENS_5StateE(ptr noundef nonnull align 8 dereferenceable(8) %13, ptr noundef nonnull align 8 dereferenceable(32) %6, i32 noundef 0, i32 noundef 1)
          to label %44 unwind label %56

44:                                               ; preds = %43
  call void @_ZN7QPixmapD1Ev(ptr noundef nonnull align 8 dereferenceable(32) %6) #21
  invoke void @_ZN16PluginInfoDialog18populateTreeWidgetEv(ptr noundef nonnull align 8 dereferenceable(88) %0)
          to label %45 unwind label %48

45:                                               ; preds = %44
  ret void

46:                                               ; preds = %2
  %47 = landingpad { ptr, i32 }
          cleanup
  br label %59

48:                                               ; preds = %44, %39, %37, %32, %30, %25, %23, %18, %16, %9
  %49 = landingpad { ptr, i32 }
          cleanup
  br label %58

50:                                               ; preds = %22
  %51 = landingpad { ptr, i32 }
          cleanup
  call void @_ZN7QPixmapD1Ev(ptr noundef nonnull align 8 dereferenceable(32) %3) #21
  br label %58

52:                                               ; preds = %29
  %53 = landingpad { ptr, i32 }
          cleanup
  call void @_ZN7QPixmapD1Ev(ptr noundef nonnull align 8 dereferenceable(32) %4) #21
  br label %58

54:                                               ; preds = %36
  %55 = landingpad { ptr, i32 }
          cleanup
  call void @_ZN7QPixmapD1Ev(ptr noundef nonnull align 8 dereferenceable(32) %5) #21
  br label %58

56:                                               ; preds = %43
  %57 = landingpad { ptr, i32 }
          cleanup
  call void @_ZN7QPixmapD1Ev(ptr noundef nonnull align 8 dereferenceable(32) %6) #21
  br label %58

58:                                               ; preds = %56, %54, %52, %50, %48
  %.pn = phi { ptr, i32 } [ %49, %48 ], [ %57, %56 ], [ %55, %54 ], [ %53, %52 ], [ %51, %50 ]
  call void @_ZN7QStringD2Ev(ptr noundef nonnull align 8 dereferenceable(8) %14) #21
  call void @_ZN5QIconD1Ev(ptr noundef nonnull align 8 dereferenceable(8) %13) #21
  call void @_ZN5QIconD1Ev(ptr noundef nonnull align 8 dereferenceable(8) %12) #21
  call void @_ZN5QIconD1Ev(ptr noundef nonnull align 8 dereferenceable(8) %11) #21
  br label %59

59:                                               ; preds = %58, %46
  %.pn.pn = phi { ptr, i32 } [ %.pn, %58 ], [ %47, %46 ]
  call void @_ZN7QDialogD2Ev(ptr noundef nonnull align 8 dereferenceable(48) %0) #21
  resume { ptr, i32 } %.pn.pn
}